target datalayout = "e-m:e-p270:32:32-p271:32:32-p272:64:64-i64:64-i128:128-f80:128-n8:16:32:64-S128"
target triple = "x86_64-pc-linux-gnu"

; Function Attrs: nounwind uwtable
define ptr @lv_strcpy(ptr noundef %0, ptr noundef %1) #0 {
  %3 = alloca ptr, align 8
  %4 = alloca ptr, align 8
  %5 = alloca ptr, align 8
  store ptr %0, ptr %3, align 8, !tbaa !3
  store ptr %1, ptr %4, align 8, !tbaa !3
  call void @llvm.lifetime.start.p0(i64 8, ptr %5) #3
  %6 = load ptr, ptr %3, align 8, !tbaa !3
  store ptr %6, ptr %5, align 8, !tbaa !3
  br label %7

7:                                                ; preds = %15, %2
  %8 = load ptr, ptr %4, align 8, !tbaa !3
  %9 = getelementptr inbounds nuw i8, ptr %8, i32 1
  store ptr %9, ptr %4, align 8, !tbaa !3
  %10 = load i8, ptr %8, align 1, !tbaa !9
  %11 = load ptr, ptr %3, align 8, !tbaa !3
  %12 = getelementptr inbounds nuw i8, ptr %11, i32 1
  store ptr %12, ptr %3, align 8, !tbaa !3
  store i8 %10, ptr %11, align 1, !tbaa !9
  %13 = sext i8 %10 to i32
  %14 = icmp ne i32 %13, 0
  br i1 %14, label %15, label %16

15:                                               ; preds = %7
  br label %7, !llvm.loop !30

16:                                               ; preds = %7
  %17 = load ptr, ptr %5, align 8, !tbaa !3
  call void @llvm.lifetime.end.p0(i64 8, ptr %5) #3
  ret ptr %17
}

; Function Attrs: nounwind uwtable
define i64 @lv_strlen(ptr noundef %0) #0 {
  %2 = alloca ptr, align 8
  %3 = alloca i64, align 8
  store ptr %0, ptr %2, align 8, !tbaa !3
  call void @llvm.lifetime.start.p0(i64 8, ptr %3) #3
  store i64 0, ptr %3, align 8, !tbaa !7
  br label %4

4:                                                ; preds = %10, %1
  %5 = load ptr, ptr %2, align 8, !tbaa !3
  %6 = load i64, ptr %3, align 8, !tbaa !7
  %7 = getelementptr inbounds nuw i8, ptr %5, i64 %6
  %8 = load i8, ptr %7, align 1, !tbaa !9
  %9 = icmp ne i8 %8, 0
  br i1 %9, label %10, label %13

10:                                               ; preds = %4
  %11 = load i64, ptr %3, align 8, !tbaa !7
  %12 = add i64 %11, 1
  store i64 %12, ptr %3, align 8, !tbaa !7
  br label %4, !llvm.loop !25

13:                                               ; preds = %4
  %14 = load i64, ptr %3, align 8, !tbaa !7
  call void @llvm.lifetime.end.p0(i64 8, ptr %3) #3
  ret i64 %14
}

; Function Attrs: nounwind uwtable
define ptr @lv_strcat(ptr noundef %0, ptr noundef %1) #0 {
  %3 = alloca ptr, align 8
  %4 = alloca ptr, align 8
  store ptr %0, ptr %3, align 8, !tbaa !3
  store ptr %1, ptr %4, align 8, !tbaa !3
  %5 = load ptr, ptr %3, align 8, !tbaa !3
  %6 = load ptr, ptr %3, align 8, !tbaa !3
  %7 = call i64 @lv_strlen(ptr noundef %6)
  %8 = getelementptr inbounds nuw i8, ptr %5, i64 %7
  %9 = load ptr, ptr %4, align 8, !tbaa !3
  %10 = call ptr @lv_strcpy(ptr noundef %8, ptr noundef %9)
  %11 = load ptr, ptr %3, align 8, !tbaa !3
  ret ptr %11
}