; Function Attrs: nofree norecurse nosync nounwind memory(argmem: readwrite) uwtable
define noundef ptr @lv_strcat(ptr noundef returned %0, ptr nocapture noundef readonly %1) local_unnamed_addr #0 {
  br label %3

3:                                                ; preds = %3, %2
  %.0.i = phi i64 [ 0, %2 ], [ %6, %3 ]
  %4 = getelementptr inbounds nuw i8, ptr %0, i64 %.0.i
  %5 = load i8, ptr %4, align 1, !tbaa !3
  %.not.i = icmp eq i8 %5, 0
  %6 = add i64 %.0.i, 1
  br i1 %.not.i, label %lv_strlen.exit.preheader, label %3, !llvm.loop !19

lv_strlen.exit.preheader:                         ; preds = %3
  %7 = getelementptr inbounds nuw i8, ptr %0, i64 %.0.i
  br label %lv_strlen.exit

lv_strlen.exit:                                   ; preds = %lv_strlen.exit.preheader, %lv_strlen.exit
  %.04.i = phi ptr [ %8, %lv_strlen.exit ], [ %1, %lv_strlen.exit.preheader ]
  %.0.i4 = phi ptr [ %10, %lv_strlen.exit ], [ %7, %lv_strlen.exit.preheader ]
  %8 = getelementptr inbounds nuw i8, ptr %.04.i, i64 1
  %9 = load i8, ptr %.04.i, align 1, !tbaa !3
  %10 = getelementptr inbounds nuw i8, ptr %.0.i4, i64 1
  store i8 %9, ptr %.0.i4, align 1, !tbaa !3
  %.not.i5 = icmp eq i8 %9, 0
  br i1 %.not.i5, label %lv_strcpy.exit, label %lv_strlen.exit, !llvm.loop !23

lv_strcpy.exit:                                   ; preds = %lv_strlen.exit
  ret ptr %0
}